; Function Attrs: mustprogress nofree norecurse nosync nounwind willreturn memory(argmem: read) uwtable
define dso_local zeroext i1 @Curl_use_http_1_1plus(ptr noundef readonly captures(none) %0, ptr noundef readonly captures(none) %1) local_unnamed_addr #4 {
  %3 = getelementptr inbounds nuw i8, ptr %0, i64 4873
  %4 = load i8, ptr %3, align 1, !tbaa !145
  %5 = icmp eq i8 %4, 10
  br i1 %5, label %14, label %6

6:                                                ; preds = %2
  %7 = getelementptr inbounds nuw i8, ptr %1, i64 1372
  %8 = load i8, ptr %7, align 4, !tbaa !108
  %9 = icmp eq i8 %8, 10
  br i1 %9, label %14, label %10

10:                                               ; preds = %6
  %11 = getelementptr inbounds nuw i8, ptr %0, i64 4872
  %12 = load i8, ptr %11, align 8, !tbaa !4
  %13 = icmp ne i8 %12, 1
  br label %14

14:                                               ; preds = %10, %2, %6
  %.0 = phi i1 [ false, %6 ], [ false, %2 ], [ %13, %10 ]
  ret i1 %.0
}